target datalayout = "e-m:e-p270:32:32-p271:32:32-p272:64:64-i64:64-i128:128-f80:128-n8:16:32:64-S128"
target triple = "x86_64-pc-linux-gnu"

%struct.H5S_hyper_span_info_t = type { i32, ptr, ptr, [2 x %struct.H5S_hyper_op_info_t], ptr, ptr, [0 x i64] }
%struct.H5S_hyper_op_info_t = type { i64, %union.anon.1 }
%union.anon.1 = type { ptr }
%struct.H5S_hyper_span_t = type { i64, i64, ptr, ptr }

@H5S_init_g = external global i8, align 1
@H5_libterm_g = external global i8, align 1
@.str = private unnamed_addr constant [102 x i8] c"generated/home/dtcxzyw/WorkSpace/Projects/compilers/llvm-opt-benchmark/bench/hdf5/hdf5/src/H5Shyper.c\00", align 1
@H5E_CANTFREE_g = external global i64, align 8
@__func__.H5S__hyper_span_blocklist = private unnamed_addr constant [26 x i8] c"H5S__hyper_span_blocklist\00", align 1
@H5E_INTERNAL_g = external global i64, align 8
@.str.85 = private unnamed_addr constant [34 x i8] c"failed to release hyperslab spans\00", align 1

; Function Attrs: nounwind uwtable
define internal i32 @H5S__hyper_span_blocklist(ptr noundef %0, ptr noundef %1, ptr noundef %2, i64 noundef %3, ptr noundef %4, ptr noundef %5, ptr noundef %6) #0 {
  %8 = alloca ptr, align 8
  %9 = alloca ptr, align 8
  %10 = alloca ptr, align 8
  %11 = alloca i64, align 8
  %12 = alloca ptr, align 8
  %13 = alloca ptr, align 8
  %14 = alloca ptr, align 8
  %15 = alloca ptr, align 8
  %16 = alloca i32, align 4
  %17 = alloca i8, align 1
  store ptr %0, ptr %8, align 8, !tbaa !107
  store ptr %1, ptr %9, align 8, !tbaa !33
  store ptr %2, ptr %10, align 8, !tbaa !33
  store i64 %3, ptr %11, align 8, !tbaa !15
  store ptr %4, ptr %12, align 8, !tbaa !33
  store ptr %5, ptr %13, align 8, !tbaa !33
  store ptr %6, ptr %14, align 8, !tbaa !283
  call void @llvm.lifetime.start.p0(i64 8, ptr %15) #7
  call void @llvm.lifetime.start.p0(i64 4, ptr %16) #7
  store i32 0, ptr %16, align 4, !tbaa !10
  call void @llvm.lifetime.start.p0(i64 1, ptr %17) #7
  store i8 0, ptr %17, align 1, !tbaa !8
  %18 = load i8, ptr @H5S_init_g, align 1, !tbaa !8, !range !12, !noundef !13
  %19 = trunc i8 %18 to i1
  br i1 %19, label %24, label %20

20:                                               ; preds = %7
  %21 = load i8, ptr @H5_libterm_g, align 1, !tbaa !8, !range !12, !noundef !13
  %22 = trunc i8 %21 to i1
  %23 = xor i1 %22, true
  br label %24

24:                                               ; preds = %20, %7
  %25 = phi i1 [ true, %7 ], [ %23, %20 ]
  %26 = xor i1 %25, true
  %27 = xor i1 %26, true
  %28 = zext i1 %27 to i32
  %29 = sext i32 %28 to i64
  %30 = call i64 @llvm.expect.i64(i64 %29, i64 1)
  %31 = icmp ne i64 %30, 0
  br i1 %31, label %32, label %148

32:                                               ; preds = %24
  %33 = load ptr, ptr %8, align 8, !tbaa !107
  %34 = getelementptr inbounds nuw %struct.H5S_hyper_span_info_t, ptr %33, i32 0, i32 4
  %35 = load ptr, ptr %34, align 8, !tbaa !99
  store ptr %35, ptr %15, align 8, !tbaa !99
  br label %36

36:                                               ; preds = %142, %32
  %37 = load ptr, ptr %15, align 8, !tbaa !99
  %38 = icmp ne ptr %37, null
  br i1 %38, label %39, label %43

39:                                               ; preds = %36
  %40 = load ptr, ptr %13, align 8, !tbaa !33
  %41 = load i64, ptr %40, align 8, !tbaa !15
  %42 = icmp ugt i64 %41, 0
  br label %43

43:                                               ; preds = %39, %36
  %44 = phi i1 [ false, %36 ], [ %42, %39 ]
  br i1 %44, label %45, label %146

45:                                               ; preds = %43
  %46 = load ptr, ptr %15, align 8, !tbaa !99
  %47 = getelementptr inbounds nuw %struct.H5S_hyper_span_t, ptr %46, i32 0, i32 2
  %48 = load ptr, ptr %47, align 8, !tbaa !103
  %49 = icmp ne ptr %48, null
  br i1 %49, label %50, label %95

50:                                               ; preds = %45
  %51 = load ptr, ptr %15, align 8, !tbaa !99
  %52 = getelementptr inbounds nuw %struct.H5S_hyper_span_t, ptr %51, i32 0, i32 0
  %53 = load i64, ptr %52, align 8, !tbaa !101
  %54 = load ptr, ptr %9, align 8, !tbaa !33
  %55 = load i64, ptr %11, align 8, !tbaa !15
  %56 = getelementptr inbounds nuw i64, ptr %54, i64 %55
  store i64 %53, ptr %56, align 8, !tbaa !15
  %57 = load ptr, ptr %15, align 8, !tbaa !99
  %58 = getelementptr inbounds nuw %struct.H5S_hyper_span_t, ptr %57, i32 0, i32 1
  %59 = load i64, ptr %58, align 8, !tbaa !109
  %60 = load ptr, ptr %10, align 8, !tbaa !33
  %61 = load i64, ptr %11, align 8, !tbaa !15
  %62 = getelementptr inbounds nuw i64, ptr %60, i64 %61
  store i64 %59, ptr %62, align 8, !tbaa !15
  %63 = load ptr, ptr %15, align 8, !tbaa !99
  %64 = getelementptr inbounds nuw %struct.H5S_hyper_span_t, ptr %63, i32 0, i32 2
  %65 = load ptr, ptr %64, align 8, !tbaa !103
  %66 = load ptr, ptr %9, align 8, !tbaa !33
  %67 = load ptr, ptr %10, align 8, !tbaa !33
  %68 = load i64, ptr %11, align 8, !tbaa !15
  %69 = add i64 %68, 1
  %70 = load ptr, ptr %12, align 8, !tbaa !33
  %71 = load ptr, ptr %13, align 8, !tbaa !33
  %72 = load ptr, ptr %14, align 8, !tbaa !283
  %73 = call i32 @H5S__hyper_span_blocklist(ptr noundef %65, ptr noundef %66, ptr noundef %67, i64 noundef %69, ptr noundef %70, ptr noundef %71, ptr noundef %72)
  %74 = icmp slt i32 %73, 0
  br i1 %74, label %75, label %94

75:                                               ; preds = %50
  br label %76

76:                                               ; preds = %75
  br label %77

77:                                               ; preds = %76
  br label %78

78:                                               ; preds = %77
  %79 = load i64, ptr @H5E_INTERNAL_g, align 8, !tbaa !15
  %80 = load i64, ptr @H5E_CANTFREE_g, align 8, !tbaa !15
  %81 = call i32 (ptr, ptr, i32, i64, i64, ptr, ...) @H5E_printf_stack(ptr noundef @.str, ptr noundef @__func__.H5S__hyper_span_blocklist, i32 noundef 4564, i64 noundef %79, i64 noundef %80, ptr noundef @.str.85)
  br label %82

82:                                               ; preds = %78
  br label %83

83:                                               ; preds = %82
  store i8 1, ptr %17, align 1, !tbaa !8
  %84 = load i8, ptr %17, align 1, !tbaa !8, !range !12, !noundef !13
  %85 = trunc i8 %84 to i1
  %86 = zext i1 %85 to i8
  store i8 %86, ptr %17, align 1, !tbaa !8
  br label %87

87:                                               ; preds = %83
  br label %88

88:                                               ; preds = %87
  br label %89

89:                                               ; preds = %88
  store i32 -1, ptr %16, align 4, !tbaa !10
  br label %147

90:                                               ; No predecessors!
  br label %91

91:                                               ; preds = %90
  br label %92

92:                                               ; preds = %91
  br label %93

93:                                               ; preds = %92
  br label %94

94:                                               ; preds = %93, %50
  br label %142

95:                                               ; preds = %45
  %96 = load ptr, ptr %12, align 8, !tbaa !33
  %97 = load i64, ptr %96, align 8, !tbaa !15
  %98 = icmp ugt i64 %97, 0
  br i1 %98, label %99, label %103

99:                                               ; preds = %95
  %100 = load ptr, ptr %12, align 8, !tbaa !33
  %101 = load i64, ptr %100, align 8, !tbaa !15
  %102 = add i64 %101, -1
  store i64 %102, ptr %100, align 8, !tbaa !15
  br label %141

103:                                              ; preds = %95
  %104 = load ptr, ptr %14, align 8, !tbaa !283
  %105 = load ptr, ptr %104, align 8, !tbaa !33
  %106 = load ptr, ptr %9, align 8, !tbaa !33
  %107 = load i64, ptr %11, align 8, !tbaa !15
  %108 = mul i64 %107, 8
  call void @llvm.memcpy.p0.p0.i64(ptr align 8 %105, ptr align 8 %106, i64 %108, i1 false)
  %109 = load i64, ptr %11, align 8, !tbaa !15
  %110 = load ptr, ptr %14, align 8, !tbaa !283
  %111 = load ptr, ptr %110, align 8, !tbaa !33
  %112 = getelementptr inbounds nuw i64, ptr %111, i64 %109
  store ptr %112, ptr %110, align 8, !tbaa !33
  %113 = load ptr, ptr %15, align 8, !tbaa !99
  %114 = getelementptr inbounds nuw %struct.H5S_hyper_span_t, ptr %113, i32 0, i32 0
  %115 = load i64, ptr %114, align 8, !tbaa !101
  %116 = load ptr, ptr %14, align 8, !tbaa !283
  %117 = load ptr, ptr %116, align 8, !tbaa !33
  store i64 %115, ptr %117, align 8, !tbaa !15
  %118 = load ptr, ptr %14, align 8, !tbaa !283
  %119 = load ptr, ptr %118, align 8, !tbaa !33
  %120 = getelementptr inbounds nuw i64, ptr %119, i32 1
  store ptr %120, ptr %118, align 8, !tbaa !33
  %121 = load ptr, ptr %14, align 8, !tbaa !283
  %122 = load ptr, ptr %121, align 8, !tbaa !33
  %123 = load ptr, ptr %10, align 8, !tbaa !33
  %124 = load i64, ptr %11, align 8, !tbaa !15
  %125 = mul i64 %124, 8
  call void @llvm.memcpy.p0.p0.i64(ptr align 8 %122, ptr align 8 %123, i64 %125, i1 false)
  %126 = load i64, ptr %11, align 8, !tbaa !15
  %127 = load ptr, ptr %14, align 8, !tbaa !283
  %128 = load ptr, ptr %127, align 8, !tbaa !33
  %129 = getelementptr inbounds nuw i64, ptr %128, i64 %126
  store ptr %129, ptr %127, align 8, !tbaa !33
  %130 = load ptr, ptr %15, align 8, !tbaa !99
  %131 = getelementptr inbounds nuw %struct.H5S_hyper_span_t, ptr %130, i32 0, i32 1
  %132 = load i64, ptr %131, align 8, !tbaa !109
  %133 = load ptr, ptr %14, align 8, !tbaa !283
  %134 = load ptr, ptr %133, align 8, !tbaa !33
  store i64 %132, ptr %134, align 8, !tbaa !15
  %135 = load ptr, ptr %14, align 8, !tbaa !283
  %136 = load ptr, ptr %135, align 8, !tbaa !33
  %137 = getelementptr inbounds nuw i64, ptr %136, i32 1
  store ptr %137, ptr %135, align 8, !tbaa !33
  %138 = load ptr, ptr %13, align 8, !tbaa !33
  %139 = load i64, ptr %138, align 8, !tbaa !15
  %140 = add i64 %139, -1
  store i64 %140, ptr %138, align 8, !tbaa !15
  br label %141

141:                                              ; preds = %103, %99
  br label %142

142:                                              ; preds = %141, %94
  %143 = load ptr, ptr %15, align 8, !tbaa !99
  %144 = getelementptr inbounds nuw %struct.H5S_hyper_span_t, ptr %143, i32 0, i32 3
  %145 = load ptr, ptr %144, align 8, !tbaa !108
  store ptr %145, ptr %15, align 8, !tbaa !99
  br label %36, !llvm.loop !285

146:                                              ; preds = %43
  br label %147

147:                                              ; preds = %146, %89
  br label %148

148:                                              ; preds = %147, %24
  %149 = load i32, ptr %16, align 4, !tbaa !10
  call void @llvm.lifetime.end.p0(i64 1, ptr %17) #7
  call void @llvm.lifetime.end.p0(i64 4, ptr %16) #7
  call void @llvm.lifetime.end.p0(i64 8, ptr %15) #7
  ret i32 %149
}