; Function Attrs: nofree nosync nounwind memory(readwrite, inaccessiblemem: none) uwtable
define internal fastcc void @H5S__hyper_span_blocklist(ptr noundef readonly captures(none) %0, ptr noundef nonnull captures(none) %1, ptr noundef nonnull captures(none) %2, i64 noundef %3, ptr noundef nonnull captures(none) %4, ptr noundef nonnull captures(none) %5, ptr noundef nonnull captures(none) %6) unnamed_addr #3 {
  %8 = load i8, ptr @H5S_init_g, align 1, !tbaa !3, !range !7, !noundef !8
  %9 = trunc nuw i8 %8 to i1
  %10 = load i8, ptr @H5_libterm_g, align 1, !range !7
  %11 = trunc nuw i8 %10 to i1
  %12 = xor i1 %11, true
  %13 = select i1 %9, i1 true, i1 %12
  br i1 %13, label %14, label %.critedge, !prof !9

14:                                               ; preds = %7
  %15 = getelementptr inbounds nuw i8, ptr %0, i64 56
  %.03843 = load ptr, ptr %15, align 8, !tbaa !88
  %.not44 = icmp eq ptr %.03843, null
  br i1 %.not44, label %.critedge, label %.lr.ph

.lr.ph:                                           ; preds = %14
  %16 = getelementptr inbounds nuw i64, ptr %1, i64 %3
  %17 = getelementptr inbounds nuw i64, ptr %2, i64 %3
  %18 = add i64 %3, 1
  %19 = shl i64 %3, 3
  br label %20

20:                                               ; preds = %.lr.ph, %46
  %.03845 = phi ptr [ %.03843, %.lr.ph ], [ %.038, %46 ]
  %21 = load i64, ptr %5, align 8, !tbaa !11
  %.not40 = icmp eq i64 %21, 0
  br i1 %.not40, label %.critedge, label %22

22:                                               ; preds = %20
  %23 = getelementptr inbounds nuw i8, ptr %.03845, i64 16
  %24 = load ptr, ptr %23, align 8, !tbaa !92
  %.not41 = icmp eq ptr %24, null
  br i1 %.not41, label %29, label %25

25:                                               ; preds = %22
  %26 = load i64, ptr %.03845, align 8, !tbaa !90
  store i64 %26, ptr %16, align 8, !tbaa !11
  %27 = getelementptr inbounds nuw i8, ptr %.03845, i64 8
  %28 = load i64, ptr %27, align 8, !tbaa !97
  store i64 %28, ptr %17, align 8, !tbaa !11
  tail call fastcc void @H5S__hyper_span_blocklist(ptr noundef nonnull %24, ptr noundef %1, ptr noundef %2, i64 noundef %18, ptr noundef %4, ptr noundef %5, ptr noundef %6)
  br label %46

29:                                               ; preds = %22
  %30 = load i64, ptr %4, align 8, !tbaa !11
  %.not42 = icmp eq i64 %30, 0
  br i1 %.not42, label %33, label %31

31:                                               ; preds = %29
  %32 = add i64 %30, -1
  store i64 %32, ptr %4, align 8, !tbaa !11
  br label %46

33:                                               ; preds = %29
  %34 = load ptr, ptr %6, align 8, !tbaa !31
  tail call void @llvm.memcpy.p0.p0.i64(ptr align 8 %34, ptr nonnull align 8 %1, i64 %19, i1 false)
  %35 = load ptr, ptr %6, align 8, !tbaa !31
  %36 = getelementptr inbounds nuw i64, ptr %35, i64 %3
  %37 = load i64, ptr %.03845, align 8, !tbaa !90
  store i64 %37, ptr %36, align 8, !tbaa !11
  %38 = getelementptr inbounds nuw i8, ptr %36, i64 8
  store ptr %38, ptr %6, align 8, !tbaa !31
  tail call void @llvm.memcpy.p0.p0.i64(ptr nonnull align 8 %38, ptr nonnull align 8 %2, i64 %19, i1 false)
  %39 = load ptr, ptr %6, align 8, !tbaa !31
  %40 = getelementptr inbounds nuw i64, ptr %39, i64 %3
  %41 = getelementptr inbounds nuw i8, ptr %.03845, i64 8
  %42 = load i64, ptr %41, align 8, !tbaa !97
  store i64 %42, ptr %40, align 8, !tbaa !11
  %43 = getelementptr inbounds nuw i8, ptr %40, i64 8
  store ptr %43, ptr %6, align 8, !tbaa !31
  %44 = load i64, ptr %5, align 8, !tbaa !11
  %45 = add i64 %44, -1
  store i64 %45, ptr %5, align 8, !tbaa !11
  br label %46

46:                                               ; preds = %25, %31, %33
  %47 = getelementptr inbounds nuw i8, ptr %.03845, i64 24
  %.038 = load ptr, ptr %47, align 8, !tbaa !88
  %.not = icmp eq ptr %.038, null
  br i1 %.not, label %.critedge, label %20, !llvm.loop !267

.critedge:                                        ; preds = %20, %46, %14, %7
  ret void
}